; Function Attrs: nounwind uwtable
define range(i32 -1094995529, 1) i32 @ff_cbs_read_signed(ptr noundef readonly captures(none) %0, ptr noundef captures(none) %1, i32 noundef %2, ptr noundef %3, ptr noundef %4, ptr noundef writeonly captures(none) %5, i32 noundef %6, i32 noundef %7) local_unnamed_addr #3 {
  %9 = alloca %struct.GetBitContext, align 8
  call void @llvm.lifetime.start.p0(i64 32, ptr nonnull %9) #10
  %10 = getelementptr inbounds nuw i8, ptr %0, i64 36
  %11 = load i32, ptr %10, align 4, !tbaa !29
  %.not = icmp eq i32 %11, 0
  br i1 %.not, label %13, label %12

12:                                               ; preds = %8
  call void @llvm.memcpy.p0.p0.i64(ptr noundef nonnull align 8 dereferenceable(32) %9, ptr noundef nonnull align 8 dereferenceable(32) %1, i64 32, i1 false), !tbaa.struct !106
  br label %13

13:                                               ; preds = %8, %12
  %14 = add i32 %2, -1
  %or.cond = icmp ult i32 %14, 32
  br i1 %or.cond, label %16, label %15

15:                                               ; preds = %13
  tail call void (ptr, i32, ptr, ...) @av_log(ptr noundef null, i32 noundef 0, ptr noundef nonnull @.str.1, ptr noundef nonnull @.str.16, ptr noundef nonnull @.str.3, i32 noundef 709) #10
  tail call void @abort() #11
  unreachable

16:                                               ; preds = %13
  %17 = getelementptr i8, ptr %1, i64 16
  %.val41 = load i32, ptr %17, align 8, !tbaa !96
  %18 = getelementptr i8, ptr %1, i64 20
  %.val42 = load i32, ptr %18, align 4, !tbaa !104
  %19 = sub nsw i32 %.val42, %.val41
  %20 = icmp slt i32 %19, %2
  br i1 %20, label %21, label %23

21:                                               ; preds = %16
  %22 = load ptr, ptr %0, align 8, !tbaa !19
  tail call void (ptr, i32, ptr, ...) @av_log(ptr noundef %22, i32 noundef 16, ptr noundef nonnull @.str.19, ptr noundef %3) #10
  br label %76

23:                                               ; preds = %16
  %24 = icmp samesign ult i32 %2, 26
  %25 = getelementptr inbounds nuw i8, ptr %1, i64 24
  %26 = load i32, ptr %25, align 8, !tbaa !99
  %27 = load ptr, ptr %1, align 8, !tbaa !98
  %28 = lshr i32 %.val41, 3
  %29 = zext nneg i32 %28 to i64
  %30 = getelementptr inbounds nuw i8, ptr %27, i64 %29
  %31 = load i32, ptr %30, align 1, !tbaa !91
  %32 = tail call i32 @llvm.bswap.i32(i32 %31)
  %33 = and i32 %.val41, 7
  %34 = shl i32 %32, %33
  br i1 %24, label %35, label %40

35:                                               ; preds = %23
  %36 = sub nuw nsw i32 32, %2
  %37 = lshr i32 %34, %36
  %38 = add i32 %.val41, %2
  %39 = tail call i32 @llvm.umin.i32(i32 %26, i32 %38)
  br label %get_sbits_long.exit

40:                                               ; preds = %23
  %41 = lshr i32 %34, 16
  %42 = add i32 %.val41, 16
  %43 = tail call i32 @llvm.umin.i32(i32 %26, i32 %42)
  store i32 %43, ptr %17, align 8, !tbaa !96
  %44 = add nsw i32 %2, -16
  %45 = shl nuw i32 %41, %44
  %46 = lshr i32 %43, 3
  %47 = zext nneg i32 %46 to i64
  %48 = getelementptr inbounds nuw i8, ptr %27, i64 %47
  %49 = load i32, ptr %48, align 1, !tbaa !91
  %50 = tail call i32 @llvm.bswap.i32(i32 %49)
  %51 = and i32 %43, 7
  %52 = shl i32 %50, %51
  %53 = sub nuw nsw i32 48, %2
  %54 = lshr i32 %52, %53
  %55 = add i32 %43, %44
  %56 = tail call i32 @llvm.umin.i32(i32 %26, i32 %55)
  %57 = or i32 %54, %45
  %.pre.i = sub nuw nsw i32 32, %2
  br label %get_sbits_long.exit

get_sbits_long.exit:                              ; preds = %35, %40
  %narrow.i.pre-phi.i = phi i32 [ %36, %35 ], [ %.pre.i, %40 ]
  %.sink.i = phi i32 [ %39, %35 ], [ %56, %40 ]
  %.0.i.i = phi i32 [ %37, %35 ], [ %57, %40 ]
  store i32 %.sink.i, ptr %17, align 8, !tbaa !96
  %58 = shl i32 %.0.i.i, %narrow.i.pre-phi.i
  %59 = ashr exact i32 %58, %narrow.i.pre-phi.i
  br i1 %.not, label %70, label %60

60:                                               ; preds = %get_sbits_long.exit
  %61 = getelementptr inbounds nuw i8, ptr %9, i64 16
  %.val40 = load i32, ptr %61, align 8, !tbaa !96
  %.not38 = icmp sgt i32 %.val40, %.sink.i
  br i1 %.not38, label %62, label %63

62:                                               ; preds = %60
  tail call void (ptr, i32, ptr, ...) @av_log(ptr noundef null, i32 noundef 0, ptr noundef nonnull @.str.1, ptr noundef nonnull @.str.18, ptr noundef nonnull @.str.3, i32 noundef 719) #10
  tail call void @abort() #11
  unreachable

63:                                               ; preds = %60
  %64 = getelementptr inbounds nuw i8, ptr %0, i64 56
  %65 = load ptr, ptr %64, align 8, !tbaa !107
  %66 = getelementptr inbounds nuw i8, ptr %0, i64 48
  %67 = load ptr, ptr %66, align 8, !tbaa !31
  %68 = sub nsw i32 %.sink.i, %.val40
  %69 = sext i32 %59 to i64
  call void %65(ptr noundef %67, ptr noundef nonnull %9, i32 noundef %68, ptr noundef %3, ptr noundef %4, i64 noundef %69) #10
  br label %70

70:                                               ; preds = %63, %get_sbits_long.exit
  %71 = icmp slt i32 %59, %6
  %72 = icmp sgt i32 %59, %7
  %or.cond39 = or i1 %71, %72
  br i1 %or.cond39, label %73, label %75

73:                                               ; preds = %70
  %74 = load ptr, ptr %0, align 8, !tbaa !19
  call void (ptr, i32, ptr, ...) @av_log(ptr noundef %74, i32 noundef 16, ptr noundef nonnull @.str.20, ptr noundef %3, i32 noundef %59, i32 noundef %6, i32 noundef %7) #10
  br label %76

75:                                               ; preds = %70
  store i32 %59, ptr %5, align 4, !tbaa !59
  br label %76

76:                                               ; preds = %75, %73, %21
  %.0 = phi i32 [ -1094995529, %21 ], [ -1094995529, %73 ], [ 0, %75 ]
  call void @llvm.lifetime.end.p0(i64 32, ptr nonnull %9) #10
  ret i32 %.0
}